target datalayout = "e-m:e-p270:32:32-p271:32:32-p272:64:64-i64:64-i128:128-f80:128-n8:16:32:64-S128"
target triple = "x86_64-pc-linux-gnu"

%struct.mbedtls_cipher_context_t = type { ptr, i32, i32, ptr, ptr, [16 x i8], i64, [16 x i8], i64, ptr, ptr }
%struct.mbedtls_cmac_context_t = type { [16 x i8], [16 x i8], i64 }

; Function Attrs: nounwind uwtable
define hidden i32 @mbedtls_cipher_cmac_reset(ptr noundef %0) #0 {
  %2 = alloca i32, align 4
  %3 = alloca ptr, align 8
  %4 = alloca ptr, align 8
  %5 = alloca i32, align 4
  store ptr %0, ptr %3, align 8, !tbaa !3
  call void @llvm.lifetime.start.p0(i64 8, ptr %4) #11
  %6 = load ptr, ptr %3, align 8, !tbaa !3
  %7 = icmp eq ptr %6, null
  br i1 %7, label %18, label %8

8:                                                ; preds = %1
  %9 = load ptr, ptr %3, align 8, !tbaa !3
  %10 = getelementptr inbounds nuw %struct.mbedtls_cipher_context_t, ptr %9, i32 0, i32 0
  %11 = load ptr, ptr %10, align 8, !tbaa !12
  %12 = icmp eq ptr %11, null
  br i1 %12, label %18, label %13

13:                                               ; preds = %8
  %14 = load ptr, ptr %3, align 8, !tbaa !3
  %15 = getelementptr inbounds nuw %struct.mbedtls_cipher_context_t, ptr %14, i32 0, i32 10
  %16 = load ptr, ptr %15, align 8, !tbaa !19
  %17 = icmp eq ptr %16, null
  br i1 %17, label %18, label %19

18:                                               ; preds = %13, %8, %1
  store i32 -24832, ptr %2, align 4
  store i32 1, ptr %5, align 4
  br label %31

19:                                               ; preds = %13
  %20 = load ptr, ptr %3, align 8, !tbaa !3
  %21 = getelementptr inbounds nuw %struct.mbedtls_cipher_context_t, ptr %20, i32 0, i32 10
  %22 = load ptr, ptr %21, align 8, !tbaa !19
  store ptr %22, ptr %4, align 8, !tbaa !18
  %23 = load ptr, ptr %4, align 8, !tbaa !18
  %24 = getelementptr inbounds nuw %struct.mbedtls_cmac_context_t, ptr %23, i32 0, i32 2
  store i64 0, ptr %24, align 8, !tbaa !21
  %25 = load ptr, ptr %4, align 8, !tbaa !18
  %26 = getelementptr inbounds nuw %struct.mbedtls_cmac_context_t, ptr %25, i32 0, i32 1
  %27 = getelementptr inbounds [16 x i8], ptr %26, i64 0, i64 0
  call void @mbedtls_platform_zeroize(ptr noundef %27, i64 noundef 16)
  %28 = load ptr, ptr %4, align 8, !tbaa !18
  %29 = getelementptr inbounds nuw %struct.mbedtls_cmac_context_t, ptr %28, i32 0, i32 0
  %30 = getelementptr inbounds [16 x i8], ptr %29, i64 0, i64 0
  call void @mbedtls_platform_zeroize(ptr noundef %30, i64 noundef 16)
  store i32 0, ptr %2, align 4
  store i32 1, ptr %5, align 4
  br label %31

31:                                               ; preds = %19, %18
  call void @llvm.lifetime.end.p0(i64 8, ptr %4) #11
  %32 = load i32, ptr %2, align 4
  ret i32 %32
}