; Function Attrs: nounwind uwtable
define hidden range(i32 -24832, 1) i32 @mbedtls_cipher_cmac_reset(ptr noundef readonly %0) local_unnamed_addr #0 {
  %2 = icmp eq ptr %0, null
  br i1 %2, label %13, label %3

3:                                                ; preds = %1
  %4 = load ptr, ptr %0, align 8, !tbaa !3
  %5 = icmp eq ptr %4, null
  br i1 %5, label %13, label %6

6:                                                ; preds = %3
  %7 = getelementptr inbounds nuw i8, ptr %0, i64 88
  %8 = load ptr, ptr %7, align 8, !tbaa !12
  %9 = icmp eq ptr %8, null
  br i1 %9, label %13, label %10

10:                                               ; preds = %6
  %11 = getelementptr inbounds nuw i8, ptr %8, i64 32
  store i64 0, ptr %11, align 8, !tbaa !13
  %12 = getelementptr inbounds nuw i8, ptr %8, i64 16
  tail call void @mbedtls_platform_zeroize(ptr noundef nonnull %12, i64 noundef 16) #13
  tail call void @mbedtls_platform_zeroize(ptr noundef nonnull %8, i64 noundef 16) #13
  br label %13

13:                                               ; preds = %1, %3, %6, %10
  %.0 = phi i32 [ 0, %10 ], [ -24832, %6 ], [ -24832, %3 ], [ -24832, %1 ]
  ret i32 %.0
}